; ModuleID = 'source-C-CXX/25/1081.c'
source_filename = "source-C-CXX/25/1081.c"
target datalayout = "e-m:e-p270:32:32-p271:32:32-p272:64:64-i64:64-f80:128-n8:16:32:64-S128"
target triple = "x86_64-pc-linux-gnu"

; Function Attrs: nounwind sspstrong uwtable
define dso_local i32 @main(i32 %0, i8** nocapture readnone %1) local_unnamed_addr #0 {
  %3 = alloca [101 x i8], align 16
  %4 = getelementptr inbounds [101 x i8], [101 x i8]* %3, i64 0, i64 0
  call void @llvm.lifetime.start.p0i8(i64 101, i8* nonnull %4) #4
  %5 = call i32 (i8*, ...) bitcast (i32 (...)* @gets to i32 (i8*, ...)*)(i8* nonnull %4) #4
  br label %6

6:                                                ; preds = %18, %2
  %7 = phi i64 [ %20, %18 ], [ 0, %2 ]
  %8 = phi i8 [ %19, %18 ], [ 45, %2 ]
  %9 = getelementptr inbounds [101 x i8], [101 x i8]* %3, i64 0, i64 %7
  %10 = load i8, i8* %9, align 1, !tbaa !5
  switch i8 %10, label %11 [
    i8 0, label %21
    i8 32, label %13
  ]

11:                                               ; preds = %6
  %12 = sext i8 %10 to i32
  br label %15

13:                                               ; preds = %6
  %14 = icmp eq i8 %8, 32
  br i1 %14, label %18, label %15

15:                                               ; preds = %13, %11
  %16 = phi i32 [ %12, %11 ], [ 32, %13 ]
  %17 = call i32 @putchar(i32 %16)
  br label %18

18:                                               ; preds = %15, %13
  %19 = load i8, i8* %9, align 1, !tbaa !5
  %20 = add nuw i64 %7, 1
  br label %6, !llvm.loop !8

21:                                               ; preds = %6
  call void @llvm.lifetime.end.p0i8(i64 101, i8* nonnull %4) #4
  ret i32 0
}

; Function Attrs: argmemonly mustprogress nofree nosync nounwind willreturn
declare void @llvm.lifetime.start.p0i8(i64 immarg, i8* nocapture) #1

declare i32 @gets(...) local_unnamed_addr #2

; Function Attrs: argmemonly mustprogress nofree nosync nounwind willreturn
declare void @llvm.lifetime.end.p0i8(i64 immarg, i8* nocapture) #1

; Function Attrs: nofree nounwind
declare noundef i32 @putchar(i32 noundef) local_unnamed_addr #3


!llvm.module.flags = !{!0, !1, !2, !3}
!llvm.ident = !{!4}

!0 = !{i32 1, !"wchar_size", i32 4}
!1 = !{i32 7, !"PIC Level", i32 2}
!2 = !{i32 7, !"PIE Level", i32 2}
!3 = !{i32 7, !"uwtable", i32 1}
!4 = !{!"clang version 13.0.0"}
!5 = !{!6, !6, i64 0}
!6 = !{!"omnipotent char", !7, i64 0}
!7 = !{!"Simple C/C++ TBAA"}
!8 = distinct !{!8, !9}
!9 = !{!"llvm.loop.mustprogress"}
